; ModuleID = '56/1128.c'
source_filename = "56/1128.c"
target datalayout = "e-m:e-p270:32:32-p271:32:32-p272:64:64-i64:64-f80:128-n8:16:32:64-S128"
target triple = "x86_64-pc-linux-gnu"

@.str = private unnamed_addr constant [3 x i8] c"%d\00", align 1

; Function Attrs: noinline nounwind uwtable
define dso_local i32 @main() #0 {
  %1 = alloca i32, align 4
  %2 = alloca i32, align 4
  %3 = alloca [5 x i32], align 16
  %4 = alloca i32, align 4
  store i32 0, i32* %1, align 4
  %5 = call i32 (i8*, ...) @__isoc99_scanf(i8* getelementptr inbounds ([3 x i8], [3 x i8]* @.str, i64 0, i64 0), i32* %2)
  %6 = load i32, i32* %2, align 4
  %7 = srem i32 %6, 10
  %8 = getelementptr inbounds [5 x i32], [5 x i32]* %3, i64 0, i64 0
  store i32 %7, i32* %8, align 16
  %9 = load i32, i32* %2, align 4
  %10 = srem i32 %9, 100
  %11 = sdiv i32 %10, 10
  %12 = getelementptr inbounds [5 x i32], [5 x i32]* %3, i64 0, i64 1
  store i32 %11, i32* %12, align 4
  %13 = load i32, i32* %2, align 4
  %14 = srem i32 %13, 1000
  %15 = sdiv i32 %14, 100
  %16 = getelementptr inbounds [5 x i32], [5 x i32]* %3, i64 0, i64 2
  store i32 %15, i32* %16, align 8
  %17 = load i32, i32* %2, align 4
  %18 = srem i32 %17, 10000
  %19 = sdiv i32 %18, 1000
  %20 = getelementptr inbounds [5 x i32], [5 x i32]* %3, i64 0, i64 3
  store i32 %19, i32* %20, align 4
  %21 = load i32, i32* %2, align 4
  %22 = srem i32 %21, 100000
  %23 = sdiv i32 %22, 10000
  %24 = getelementptr inbounds [5 x i32], [5 x i32]* %3, i64 0, i64 4
  store i32 %23, i32* %24, align 16
  store i32 0, i32* %4, align 4
  br label %25

25:                                               ; preds = %41, %0
  %26 = load i32, i32* %4, align 4
  %27 = icmp slt i32 %26, 5
  br i1 %27, label %28, label %44

28:                                               ; preds = %25
  %29 = load i32, i32* %4, align 4
  %30 = sext i32 %29 to i64
  %31 = getelementptr inbounds [5 x i32], [5 x i32]* %3, i64 0, i64 %30
  %32 = load i32, i32* %31, align 4
  %33 = icmp ne i32 %32, 0
  br i1 %33, label %34, label %40

34:                                               ; preds = %28
  %35 = load i32, i32* %4, align 4
  %36 = sext i32 %35 to i64
  %37 = getelementptr inbounds [5 x i32], [5 x i32]* %3, i64 0, i64 %36
  %38 = load i32, i32* %37, align 4
  %39 = call i32 (i8*, ...) @printf(i8* getelementptr inbounds ([3 x i8], [3 x i8]* @.str, i64 0, i64 0), i32 %38)
  br label %40

40:                                               ; preds = %34, %28
  br label %41

41:                                               ; preds = %40
  %42 = load i32, i32* %4, align 4
  %43 = add nsw i32 %42, 1
  store i32 %43, i32* %4, align 4
  br label %25

44:                                               ; preds = %25
  ret i32 0
}

declare dso_local i32 @__isoc99_scanf(i8*, ...) #1

declare dso_local i32 @printf(i8*, ...) #1


!llvm.module.flags = !{!0}
!llvm.ident = !{!1}

!0 = !{i32 1, !"wchar_size", i32 4}
!1 = !{!"clang version 10.0.0-4ubuntu1 "}
